target datalayout = "e-m:e-p270:32:32-p271:32:32-p272:64:64-i64:64-i128:128-f80:128-n8:16:32:64-S128"
target triple = "x86_64-pc-linux-gnu"

%struct.H5O_pline_t = type { %struct.H5O_shared_t, i32, i64, i64, ptr }
%struct.H5O_shared_t = type { i32, ptr, i32, %union.anon.1 }
%union.anon.1 = type { %struct.H5O_mesg_loc_t }
%struct.H5O_mesg_loc_t = type { i32, i64 }
%struct.H5Z_filter_info_t = type { i32, i32, [12 x i8], ptr, i64, [4 x i32], ptr }

@.str = private unnamed_addr constant [97 x i8] c"generated/home/dtcxzyw/WorkSpace/Projects/compilers/llvm-opt-benchmark/bench/hdf5/hdf5/src/H5Z.c\00", align 1
@H5E_PLINE_g = external global i64, align 8
@H5E_RESOURCE_g = external global i64, align 8
@H5E_NOSPACE_g = external global i64, align 8
@H5E_NOTFOUND_g = external global i64, align 8
@__func__.H5Z_modify = private unnamed_addr constant [11 x i8] c"H5Z_modify\00", align 1
@.str.27 = private unnamed_addr constant [23 x i8] c"filter not in pipeline\00", align 1
@.str.28 = private unnamed_addr constant [47 x i8] c"memory allocation failed for filter parameters\00", align 1

; Function Attrs: nounwind uwtable
define i32 @H5Z_modify(ptr noundef %0, i32 noundef %1, i32 noundef %2, i64 noundef %3, ptr noundef %4) #0 {
  %6 = alloca ptr, align 8
  %7 = alloca i32, align 4
  %8 = alloca i32, align 4
  %9 = alloca i64, align 8
  %10 = alloca ptr, align 8
  %11 = alloca i64, align 8
  %12 = alloca i32, align 4
  %13 = alloca i8, align 1
  %14 = alloca i64, align 8
  store ptr %0, ptr %6, align 8
  store i32 %1, ptr %7, align 4
  store i32 %2, ptr %8, align 4
  store i64 %3, ptr %9, align 8
  store ptr %4, ptr %10, align 8
  store i32 0, ptr %12, align 4
  store i8 0, ptr %13, align 1
  store i64 0, ptr %11, align 8
  br label %15

15:                                               ; preds = %33, %5
  %16 = load i64, ptr %11, align 8
  %17 = load ptr, ptr %6, align 8
  %18 = getelementptr inbounds %struct.H5O_pline_t, ptr %17, i32 0, i32 3
  %19 = load i64, ptr %18, align 8
  %20 = icmp ult i64 %16, %19
  br i1 %20, label %21, label %36

21:                                               ; preds = %15
  %22 = load ptr, ptr %6, align 8
  %23 = getelementptr inbounds %struct.H5O_pline_t, ptr %22, i32 0, i32 4
  %24 = load ptr, ptr %23, align 8
  %25 = load i64, ptr %11, align 8
  %26 = getelementptr inbounds %struct.H5Z_filter_info_t, ptr %24, i64 %25
  %27 = getelementptr inbounds %struct.H5Z_filter_info_t, ptr %26, i32 0, i32 0
  %28 = load i32, ptr %27, align 8
  %29 = load i32, ptr %7, align 4
  %30 = icmp eq i32 %28, %29
  br i1 %30, label %31, label %32

31:                                               ; preds = %21
  br label %36

32:                                               ; preds = %21
  br label %33

33:                                               ; preds = %32
  %34 = load i64, ptr %11, align 8
  %35 = add i64 %34, 1
  store i64 %35, ptr %11, align 8
  br label %15

36:                                               ; preds = %31, %15
  %37 = load i64, ptr %11, align 8
  %38 = load ptr, ptr %6, align 8
  %39 = getelementptr inbounds %struct.H5O_pline_t, ptr %38, i32 0, i32 3
  %40 = load i64, ptr %39, align 8
  %41 = icmp ugt i64 %37, %40
  br i1 %41, label %42, label %57

42:                                               ; preds = %36
  br label %43

43:                                               ; preds = %42
  br label %44

44:                                               ; preds = %43
  br label %45

45:                                               ; preds = %44
  %46 = load i64, ptr @H5E_PLINE_g, align 8
  %47 = load i64, ptr @H5E_NOTFOUND_g, align 8
  %48 = call i32 (ptr, ptr, i32, i64, i64, ptr, ...) @H5E_printf_stack(ptr noundef @.str, ptr noundef @__func__.H5Z_modify, i32 noundef 1132, i64 noundef %46, i64 noundef %47, ptr noundef @.str.27)
  br label %49

49:                                               ; preds = %45
  store i8 1, ptr %13, align 1
  %50 = load i8, ptr %13, align 1
  %51 = trunc i8 %50 to i1
  %52 = zext i1 %51 to i8
  store i8 %52, ptr %13, align 1
  br label %53

53:                                               ; preds = %49
  br label %54

54:                                               ; preds = %53
  store i32 -1, ptr %12, align 4
  br label %190

55:                                               ; No predecessors!
  br label %56

56:                                               ; preds = %55
  br label %57

57:                                               ; preds = %56, %36
  %58 = load i32, ptr %8, align 4
  %59 = load ptr, ptr %6, align 8
  %60 = getelementptr inbounds %struct.H5O_pline_t, ptr %59, i32 0, i32 4
  %61 = load ptr, ptr %60, align 8
  %62 = load i64, ptr %11, align 8
  %63 = getelementptr inbounds %struct.H5Z_filter_info_t, ptr %61, i64 %62
  %64 = getelementptr inbounds %struct.H5Z_filter_info_t, ptr %63, i32 0, i32 1
  store i32 %58, ptr %64, align 4
  %65 = load i64, ptr %9, align 8
  %66 = load ptr, ptr %6, align 8
  %67 = getelementptr inbounds %struct.H5O_pline_t, ptr %66, i32 0, i32 4
  %68 = load ptr, ptr %67, align 8
  %69 = load i64, ptr %11, align 8
  %70 = getelementptr inbounds %struct.H5Z_filter_info_t, ptr %68, i64 %69
  %71 = getelementptr inbounds %struct.H5Z_filter_info_t, ptr %70, i32 0, i32 4
  store i64 %65, ptr %71, align 8
  %72 = load ptr, ptr %6, align 8
  %73 = getelementptr inbounds %struct.H5O_pline_t, ptr %72, i32 0, i32 4
  %74 = load ptr, ptr %73, align 8
  %75 = load i64, ptr %11, align 8
  %76 = getelementptr inbounds %struct.H5Z_filter_info_t, ptr %74, i64 %75
  %77 = getelementptr inbounds %struct.H5Z_filter_info_t, ptr %76, i32 0, i32 6
  %78 = load ptr, ptr %77, align 8
  %79 = icmp ne ptr %78, null
  br i1 %79, label %80, label %105

80:                                               ; preds = %57
  %81 = load ptr, ptr %6, align 8
  %82 = getelementptr inbounds %struct.H5O_pline_t, ptr %81, i32 0, i32 4
  %83 = load ptr, ptr %82, align 8
  %84 = load i64, ptr %11, align 8
  %85 = getelementptr inbounds %struct.H5Z_filter_info_t, ptr %83, i64 %84
  %86 = getelementptr inbounds %struct.H5Z_filter_info_t, ptr %85, i32 0, i32 6
  %87 = load ptr, ptr %86, align 8
  %88 = load ptr, ptr %6, align 8
  %89 = getelementptr inbounds %struct.H5O_pline_t, ptr %88, i32 0, i32 4
  %90 = load ptr, ptr %89, align 8
  %91 = load i64, ptr %11, align 8
  %92 = getelementptr inbounds %struct.H5Z_filter_info_t, ptr %90, i64 %91
  %93 = getelementptr inbounds %struct.H5Z_filter_info_t, ptr %92, i32 0, i32 5
  %94 = getelementptr inbounds [4 x i32], ptr %93, i64 0, i64 0
  %95 = icmp ne ptr %87, %94
  br i1 %95, label %96, label %105

96:                                               ; preds = %80
  %97 = load ptr, ptr %6, align 8
  %98 = getelementptr inbounds %struct.H5O_pline_t, ptr %97, i32 0, i32 4
  %99 = load ptr, ptr %98, align 8
  %100 = load i64, ptr %11, align 8
  %101 = getelementptr inbounds %struct.H5Z_filter_info_t, ptr %99, i64 %100
  %102 = getelementptr inbounds %struct.H5Z_filter_info_t, ptr %101, i32 0, i32 6
  %103 = load ptr, ptr %102, align 8
  %104 = call ptr @H5MM_xfree(ptr noundef %103)
  br label %105

105:                                              ; preds = %96, %80, %57
  %106 = load i64, ptr %9, align 8
  %107 = icmp ugt i64 %106, 0
  br i1 %107, label %108, label %182

108:                                              ; preds = %105
  %109 = load i64, ptr %9, align 8
  %110 = icmp ugt i64 %109, 4
  br i1 %110, label %111, label %145

111:                                              ; preds = %108
  %112 = load i64, ptr %9, align 8
  %113 = mul i64 %112, 4
  %114 = call noalias ptr @malloc(i64 noundef %113) #8
  %115 = load ptr, ptr %6, align 8
  %116 = getelementptr inbounds %struct.H5O_pline_t, ptr %115, i32 0, i32 4
  %117 = load ptr, ptr %116, align 8
  %118 = load i64, ptr %11, align 8
  %119 = getelementptr inbounds %struct.H5Z_filter_info_t, ptr %117, i64 %118
  %120 = getelementptr inbounds %struct.H5Z_filter_info_t, ptr %119, i32 0, i32 6
  store ptr %114, ptr %120, align 8
  %121 = load ptr, ptr %6, align 8
  %122 = getelementptr inbounds %struct.H5O_pline_t, ptr %121, i32 0, i32 4
  %123 = load ptr, ptr %122, align 8
  %124 = load i64, ptr %11, align 8
  %125 = getelementptr inbounds %struct.H5Z_filter_info_t, ptr %123, i64 %124
  %126 = getelementptr inbounds %struct.H5Z_filter_info_t, ptr %125, i32 0, i32 6
  %127 = load ptr, ptr %126, align 8
  %128 = icmp eq ptr null, %127
  br i1 %128, label %129, label %144

129:                                              ; preds = %111
  br label %130

130:                                              ; preds = %129
  br label %131

131:                                              ; preds = %130
  br label %132

132:                                              ; preds = %131
  %133 = load i64, ptr @H5E_RESOURCE_g, align 8
  %134 = load i64, ptr @H5E_NOSPACE_g, align 8
  %135 = call i32 (ptr, ptr, i32, i64, i64, ptr, ...) @H5E_printf_stack(ptr noundef @.str, ptr noundef @__func__.H5Z_modify, i32 noundef 1151, i64 noundef %133, i64 noundef %134, ptr noundef @.str.28)
  br label %136

136:                                              ; preds = %132
  store i8 1, ptr %13, align 1
  %137 = load i8, ptr %13, align 1
  %138 = trunc i8 %137 to i1
  %139 = zext i1 %138 to i8
  store i8 %139, ptr %13, align 1
  br label %140

140:                                              ; preds = %136
  br label %141

141:                                              ; preds = %140
  store i32 -1, ptr %12, align 4
  br label %190

142:                                              ; No predecessors!
  br label %143

143:                                              ; preds = %142
  br label %144

144:                                              ; preds = %143, %111
  br label %159

145:                                              ; preds = %108
  %146 = load ptr, ptr %6, align 8
  %147 = getelementptr inbounds %struct.H5O_pline_t, ptr %146, i32 0, i32 4
  %148 = load ptr, ptr %147, align 8
  %149 = load i64, ptr %11, align 8
  %150 = getelementptr inbounds %struct.H5Z_filter_info_t, ptr %148, i64 %149
  %151 = getelementptr inbounds %struct.H5Z_filter_info_t, ptr %150, i32 0, i32 5
  %152 = getelementptr inbounds [4 x i32], ptr %151, i64 0, i64 0
  %153 = load ptr, ptr %6, align 8
  %154 = getelementptr inbounds %struct.H5O_pline_t, ptr %153, i32 0, i32 4
  %155 = load ptr, ptr %154, align 8
  %156 = load i64, ptr %11, align 8
  %157 = getelementptr inbounds %struct.H5Z_filter_info_t, ptr %155, i64 %156
  %158 = getelementptr inbounds %struct.H5Z_filter_info_t, ptr %157, i32 0, i32 6
  store ptr %152, ptr %158, align 8
  br label %159

159:                                              ; preds = %145, %144
  store i64 0, ptr %14, align 8
  br label %160

160:                                              ; preds = %178, %159
  %161 = load i64, ptr %14, align 8
  %162 = load i64, ptr %9, align 8
  %163 = icmp ult i64 %161, %162
  br i1 %163, label %164, label %181

164:                                              ; preds = %160
  %165 = load ptr, ptr %10, align 8
  %166 = load i64, ptr %14, align 8
  %167 = getelementptr inbounds i32, ptr %165, i64 %166
  %168 = load i32, ptr %167, align 4
  %169 = load ptr, ptr %6, align 8
  %170 = getelementptr inbounds %struct.H5O_pline_t, ptr %169, i32 0, i32 4
  %171 = load ptr, ptr %170, align 8
  %172 = load i64, ptr %11, align 8
  %173 = getelementptr inbounds %struct.H5Z_filter_info_t, ptr %171, i64 %172
  %174 = getelementptr inbounds %struct.H5Z_filter_info_t, ptr %173, i32 0, i32 6
  %175 = load ptr, ptr %174, align 8
  %176 = load i64, ptr %14, align 8
  %177 = getelementptr inbounds i32, ptr %175, i64 %176
  store i32 %168, ptr %177, align 4
  br label %178

178:                                              ; preds = %164
  %179 = load i64, ptr %14, align 8
  %180 = add i64 %179, 1
  store i64 %180, ptr %14, align 8
  br label %160

181:                                              ; preds = %160
  br label %189

182:                                              ; preds = %105
  %183 = load ptr, ptr %6, align 8
  %184 = getelementptr inbounds %struct.H5O_pline_t, ptr %183, i32 0, i32 4
  %185 = load ptr, ptr %184, align 8
  %186 = load i64, ptr %11, align 8
  %187 = getelementptr inbounds %struct.H5Z_filter_info_t, ptr %185, i64 %186
  %188 = getelementptr inbounds %struct.H5Z_filter_info_t, ptr %187, i32 0, i32 6
  store ptr null, ptr %188, align 8
  br label %189

189:                                              ; preds = %182, %181
  br label %190

190:                                              ; preds = %189, %141, %54
  %191 = load i32, ptr %12, align 4
  ret i32 %191
}