; Function Attrs: nounwind uwtable
define range(i32 -1, 1) i32 @H5Z_modify(ptr nocapture noundef readonly %0, i32 noundef %1, i32 noundef %2, i64 noundef %3, ptr nocapture noundef readonly %4) local_unnamed_addr #0 {
  %6 = getelementptr inbounds i8, ptr %0, i64 56
  %7 = load i64, ptr %6, align 8
  %.not57 = icmp eq i64 %7, 0
  br i1 %.not57, label %._crit_edge.thread, label %.lr.ph

.lr.ph:                                           ; preds = %5
  %8 = getelementptr inbounds i8, ptr %0, i64 64
  %9 = load ptr, ptr %8, align 8
  br label %10

10:                                               ; preds = %.lr.ph, %14
  %.04651 = phi i64 [ 0, %.lr.ph ], [ %15, %14 ]
  %11 = getelementptr inbounds %struct.H5Z_filter_info_t, ptr %9, i64 %.04651
  %12 = load i32, ptr %11, align 8
  %13 = icmp eq i32 %12, %1
  br i1 %13, label %._crit_edge, label %14

14:                                               ; preds = %10
  %15 = add nuw i64 %.04651, 1
  %exitcond.not = icmp eq i64 %15, %7
  br i1 %exitcond.not, label %._crit_edge.thread, label %10

._crit_edge:                                      ; preds = %10
  %16 = icmp ugt i64 %.04651, %7
  br i1 %16, label %17, label %._crit_edge.thread

17:                                               ; preds = %._crit_edge
  %18 = load i64, ptr @H5E_PLINE_g, align 8
  %19 = load i64, ptr @H5E_NOTFOUND_g, align 8
  %20 = tail call i32 (ptr, ptr, i32, i64, i64, ptr, ...) @H5E_printf_stack(ptr noundef nonnull @.str, ptr noundef nonnull @__func__.H5Z_modify, i32 noundef 1132, i64 noundef %18, i64 noundef %19, ptr noundef nonnull @.str.27) #9
  br label %.loopexit

._crit_edge.thread:                               ; preds = %14, %5, %._crit_edge
  %.046.lcssa60 = phi i64 [ %.04651, %._crit_edge ], [ 0, %5 ], [ %7, %14 ]
  %21 = getelementptr inbounds i8, ptr %0, i64 64
  %22 = load ptr, ptr %21, align 8
  %23 = getelementptr inbounds %struct.H5Z_filter_info_t, ptr %22, i64 %.046.lcssa60, i32 1
  store i32 %2, ptr %23, align 4
  %24 = load ptr, ptr %21, align 8
  %25 = getelementptr inbounds %struct.H5Z_filter_info_t, ptr %24, i64 %.046.lcssa60, i32 4
  store i64 %3, ptr %25, align 8
  %26 = load ptr, ptr %21, align 8
  %27 = getelementptr inbounds %struct.H5Z_filter_info_t, ptr %26, i64 %.046.lcssa60
  %28 = getelementptr inbounds i8, ptr %27, i64 56
  %29 = load ptr, ptr %28, align 8
  %.not = icmp eq ptr %29, null
  %30 = getelementptr inbounds i8, ptr %27, i64 40
  %.not49 = icmp eq ptr %29, %30
  %or.cond = select i1 %.not, i1 true, i1 %.not49
  br i1 %or.cond, label %33, label %31

31:                                               ; preds = %._crit_edge.thread
  %32 = tail call ptr @H5MM_xfree(ptr noundef nonnull %29) #9
  br label %33

33:                                               ; preds = %31, %._crit_edge.thread
  %.not50 = icmp eq i64 %3, 0
  br i1 %.not50, label %62, label %34

34:                                               ; preds = %33
  %35 = icmp ugt i64 %3, 4
  br i1 %35, label %36, label %49

36:                                               ; preds = %34
  %37 = shl i64 %3, 2
  %38 = tail call noalias ptr @malloc(i64 noundef %37) #11
  %39 = load ptr, ptr %21, align 8
  %40 = getelementptr inbounds %struct.H5Z_filter_info_t, ptr %39, i64 %.046.lcssa60, i32 6
  store ptr %38, ptr %40, align 8
  %41 = load ptr, ptr %21, align 8
  %42 = getelementptr inbounds %struct.H5Z_filter_info_t, ptr %41, i64 %.046.lcssa60, i32 6
  %43 = load ptr, ptr %42, align 8
  %44 = icmp eq ptr %43, null
  br i1 %44, label %45, label %.preheader

45:                                               ; preds = %36
  %46 = load i64, ptr @H5E_RESOURCE_g, align 8
  %47 = load i64, ptr @H5E_NOSPACE_g, align 8
  %48 = tail call i32 (ptr, ptr, i32, i64, i64, ptr, ...) @H5E_printf_stack(ptr noundef nonnull @.str, ptr noundef nonnull @__func__.H5Z_modify, i32 noundef 1151, i64 noundef %46, i64 noundef %47, ptr noundef nonnull @.str.28) #9
  br label %.loopexit

49:                                               ; preds = %34
  %50 = load ptr, ptr %21, align 8
  %51 = getelementptr inbounds %struct.H5Z_filter_info_t, ptr %50, i64 %.046.lcssa60
  %52 = getelementptr inbounds i8, ptr %51, i64 40
  %53 = getelementptr inbounds i8, ptr %51, i64 56
  store ptr %52, ptr %53, align 8
  br label %.preheader

.preheader:                                       ; preds = %36, %49
  br label %54

54:                                               ; preds = %.preheader, %54
  %.056 = phi i64 [ %61, %54 ], [ 0, %.preheader ]
  %55 = getelementptr inbounds i32, ptr %4, i64 %.056
  %56 = load i32, ptr %55, align 4
  %57 = load ptr, ptr %21, align 8
  %58 = getelementptr inbounds %struct.H5Z_filter_info_t, ptr %57, i64 %.046.lcssa60, i32 6
  %59 = load ptr, ptr %58, align 8
  %60 = getelementptr inbounds i32, ptr %59, i64 %.056
  store i32 %56, ptr %60, align 4
  %61 = add nuw i64 %.056, 1
  %exitcond58.not = icmp eq i64 %61, %3
  br i1 %exitcond58.not, label %.loopexit, label %54

62:                                               ; preds = %33
  %63 = load ptr, ptr %21, align 8
  %64 = getelementptr inbounds %struct.H5Z_filter_info_t, ptr %63, i64 %.046.lcssa60, i32 6
  store ptr null, ptr %64, align 8
  br label %.loopexit

.loopexit:                                        ; preds = %54, %62, %45, %17
  %.045 = phi i32 [ -1, %17 ], [ -1, %45 ], [ 0, %62 ], [ 0, %54 ]
  ret i32 %.045
}